; ModuleID = '44/379.c'
source_filename = "44/379.c"
target datalayout = "e-m:e-p270:32:32-p271:32:32-p272:64:64-i64:64-f80:128-n8:16:32:64-S128"
target triple = "x86_64-pc-linux-gnu"

@.str = private unnamed_addr constant [3 x i8] c"%d\00", align 1
@.str.1 = private unnamed_addr constant [4 x i8] c"%d\0A\00", align 1

; Function Attrs: noinline nounwind uwtable
define dso_local i32 @reverse(i32 %0) #0 {
  %2 = alloca i32, align 4
  %3 = alloca i32, align 4
  %4 = alloca i32, align 4
  %5 = alloca i32, align 4
  %6 = alloca i32, align 4
  %7 = alloca i32, align 4
  %8 = alloca i32, align 4
  %9 = alloca i32, align 4
  %10 = alloca i32, align 4
  store i32 %0, i32* %2, align 4
  store i32 0, i32* %3, align 4
  store i32 1, i32* %5, align 4
  store i32 1, i32* %6, align 4
  store i32 0, i32* %7, align 4
  store i32 1, i32* %8, align 4
  store i32 1, i32* %10, align 4
  %11 = load i32, i32* %2, align 4
  %12 = icmp slt i32 %11, 0
  br i1 %12, label %13, label %16

13:                                               ; preds = %1
  %14 = load i32, i32* %2, align 4
  %15 = sub nsw i32 0, %14
  store i32 %15, i32* %2, align 4
  store i32 0, i32* %10, align 4
  br label %16

16:                                               ; preds = %13, %1
  br label %17

17:                                               ; preds = %20, %16
  %18 = load i32, i32* %6, align 4
  %19 = icmp ne i32 %18, 0
  br i1 %19, label %20, label %28

20:                                               ; preds = %17
  %21 = load i32, i32* %8, align 4
  %22 = mul nsw i32 %21, 10
  store i32 %22, i32* %8, align 4
  %23 = load i32, i32* %2, align 4
  %24 = load i32, i32* %8, align 4
  %25 = sdiv i32 %23, %24
  store i32 %25, i32* %6, align 4
  %26 = load i32, i32* %7, align 4
  %27 = add nsw i32 %26, 1
  store i32 %27, i32* %7, align 4
  br label %17

28:                                               ; preds = %17
  %29 = load i32, i32* %7, align 4
  store i32 %29, i32* %4, align 4
  br label %30

30:                                               ; preds = %53, %28
  %31 = load i32, i32* %4, align 4
  %32 = icmp sgt i32 %31, 0
  br i1 %32, label %33, label %56

33:                                               ; preds = %30
  %34 = load i32, i32* %8, align 4
  %35 = sdiv i32 %34, 10
  store i32 %35, i32* %8, align 4
  %36 = load i32, i32* %3, align 4
  %37 = load i32, i32* %2, align 4
  %38 = load i32, i32* %8, align 4
  %39 = sdiv i32 %37, %38
  %40 = load i32, i32* %5, align 4
  %41 = mul nsw i32 %39, %40
  %42 = add nsw i32 %36, %41
  store i32 %42, i32* %3, align 4
  %43 = load i32, i32* %5, align 4
  %44 = mul nsw i32 %43, 10
  store i32 %44, i32* %5, align 4
  %45 = load i32, i32* %2, align 4
  %46 = load i32, i32* %8, align 4
  %47 = sdiv i32 %45, %46
  store i32 %47, i32* %9, align 4
  %48 = load i32, i32* %2, align 4
  %49 = load i32, i32* %9, align 4
  %50 = load i32, i32* %8, align 4
  %51 = mul nsw i32 %49, %50
  %52 = sub nsw i32 %48, %51
  store i32 %52, i32* %2, align 4
  br label %53

53:                                               ; preds = %33
  %54 = load i32, i32* %4, align 4
  %55 = add nsw i32 %54, -1
  store i32 %55, i32* %4, align 4
  br label %30

56:                                               ; preds = %30
  %57 = load i32, i32* %10, align 4
  %58 = icmp eq i32 %57, 0
  br i1 %58, label %59, label %62

59:                                               ; preds = %56
  %60 = load i32, i32* %3, align 4
  %61 = sub nsw i32 0, %60
  store i32 %61, i32* %3, align 4
  br label %62

62:                                               ; preds = %59, %56
  %63 = load i32, i32* %3, align 4
  ret i32 %63
}

; Function Attrs: noinline nounwind uwtable
define dso_local i32 @main() #0 {
  %1 = alloca i32, align 4
  %2 = alloca i32, align 4
  %3 = alloca [6 x i32], align 16
  store i32 0, i32* %1, align 4
  store i32 0, i32* %2, align 4
  store i32 0, i32* %2, align 4
  br label %4

4:                                                ; preds = %12, %0
  %5 = load i32, i32* %2, align 4
  %6 = icmp slt i32 %5, 6
  br i1 %6, label %7, label %15

7:                                                ; preds = %4
  %8 = load i32, i32* %2, align 4
  %9 = sext i32 %8 to i64
  %10 = getelementptr inbounds [6 x i32], [6 x i32]* %3, i64 0, i64 %9
  %11 = call i32 (i8*, ...) @__isoc99_scanf(i8* getelementptr inbounds ([3 x i8], [3 x i8]* @.str, i64 0, i64 0), i32* %10)
  br label %12

12:                                               ; preds = %7
  %13 = load i32, i32* %2, align 4
  %14 = add nsw i32 %13, 1
  store i32 %14, i32* %2, align 4
  br label %4

15:                                               ; preds = %4
  store i32 0, i32* %2, align 4
  br label %16

16:                                               ; preds = %26, %15
  %17 = load i32, i32* %2, align 4
  %18 = icmp slt i32 %17, 6
  br i1 %18, label %19, label %29

19:                                               ; preds = %16
  %20 = load i32, i32* %2, align 4
  %21 = sext i32 %20 to i64
  %22 = getelementptr inbounds [6 x i32], [6 x i32]* %3, i64 0, i64 %21
  %23 = load i32, i32* %22, align 4
  %24 = call i32 @reverse(i32 %23)
  %25 = call i32 (i8*, ...) @printf(i8* getelementptr inbounds ([4 x i8], [4 x i8]* @.str.1, i64 0, i64 0), i32 %24)
  br label %26

26:                                               ; preds = %19
  %27 = load i32, i32* %2, align 4
  %28 = add nsw i32 %27, 1
  store i32 %28, i32* %2, align 4
  br label %16

29:                                               ; preds = %16
  ret i32 0
}

declare dso_local i32 @__isoc99_scanf(i8*, ...) #1

declare dso_local i32 @printf(i8*, ...) #1


!llvm.module.flags = !{!0}
!llvm.ident = !{!1}

!0 = !{i32 1, !"wchar_size", i32 4}
!1 = !{!"clang version 10.0.0-4ubuntu1 "}
